target datalayout = "e-m:e-p270:32:32-p271:32:32-p272:64:64-i64:64-i128:128-f80:128-n8:16:32:64-S128"
target triple = "x86_64-pc-linux-gnu"

%"struct.std::_Rb_tree_header" = type { %"struct.std::_Rb_tree_node_base", i64 }
%"struct.std::_Rb_tree_node_base" = type { i32, ptr, ptr, ptr }
%"class.grpc_core::PolymorphicRefCount" = type { ptr }
%"class.grpc_core::RefCount" = type { %"struct.std::atomic" }
%"struct.std::atomic" = type { %"struct.std::__atomic_base" }
%"struct.std::__atomic_base" = type { i64 }
%"class.std::shared_ptr" = type { %"class.std::__shared_ptr" }
%"class.std::__shared_ptr" = type { ptr, %"class.std::__shared_count" }
%"class.std::__shared_count" = type { ptr }
%"class.std::unique_ptr.126" = type { %"struct.std::__uniq_ptr_data.127" }
%"struct.std::__uniq_ptr_data.127" = type { %"class.std::__uniq_ptr_impl.128" }
%"class.std::__uniq_ptr_impl.128" = type { %"class.std::tuple.129" }
%"class.std::tuple.129" = type { %"struct.std::_Tuple_impl.130" }
%"struct.std::_Tuple_impl.130" = type { %"struct.std::_Head_base.133" }
%"struct.std::_Head_base.133" = type { ptr }
%"class.grpc_core::ChannelArgs" = type { %"class.grpc_core::AVL" }
%"class.grpc_core::AVL" = type { %"class.grpc_core::RefCountedPtr.134" }
%"class.grpc_core::RefCountedPtr.134" = type { ptr }
%"class.grpc_core::LoadBalancingPolicy" = type { %"class.grpc_core::InternallyRefCounted", %"class.std::shared_ptr", ptr, %"class.std::unique_ptr.126", %"class.grpc_core::ChannelArgs" }
%"class.grpc_core::InternallyRefCounted" = type { %"class.grpc_core::Orphanable", %"class.grpc_core::RefCount" }
%"class.grpc_core::Orphanable" = type { ptr }
%"class.grpc_core::RefCountedPtr.176" = type { ptr }
%"class.grpc_core::RefCountedPtr.182" = type { ptr }
%"class.grpc_core::DualRefCounted" = type { %"class.grpc_core::PolymorphicRefCount", %"struct.std::atomic.210" }
%"struct.std::atomic.210" = type { %"struct.std::__atomic_base.211" }
%"struct.std::__atomic_base.211" = type { i64 }
%"class.grpc_core::RefCountedPtr.212" = type { ptr }
%"class.grpc_core::(anonymous namespace)::XdsOverrideHostLb::SubchannelWrapper" = type { %"class.grpc_core::DelegatingSubchannel", %"class.grpc_core::RefCountedPtr.176", %"class.grpc_core::RefCountedPtr.182", ptr, %"class.std::set" }
%"class.grpc_core::DelegatingSubchannel" = type { %"class.grpc_core::SubchannelInterface", %"class.grpc_core::RefCountedPtr.212" }
%"class.grpc_core::SubchannelInterface" = type { %"class.grpc_core::DualRefCounted" }
%"class.std::set" = type { %"class.std::_Rb_tree.213" }
%"class.std::_Rb_tree.213" = type { %"struct.std::_Rb_tree<std::unique_ptr<grpc_core::SubchannelInterface::ConnectivityStateWatcherInterface>, std::unique_ptr<grpc_core::SubchannelInterface::ConnectivityStateWatcherInterface>, std::_Identity<std::unique_ptr<grpc_core::SubchannelInterface::ConnectivityStateWatcherInterface>>, grpc_core::(anonymous namespace)::PtrLessThan<grpc_core::SubchannelInterface::ConnectivityStateWatcherInterface>>::_Rb_tree_impl" }
%"struct.std::_Rb_tree<std::unique_ptr<grpc_core::SubchannelInterface::ConnectivityStateWatcherInterface>, std::unique_ptr<grpc_core::SubchannelInterface::ConnectivityStateWatcherInterface>, std::_Identity<std::unique_ptr<grpc_core::SubchannelInterface::ConnectivityStateWatcherInterface>>, grpc_core::(anonymous namespace)::PtrLessThan<grpc_core::SubchannelInterface::ConnectivityStateWatcherInterface>>::_Rb_tree_impl" = type { [8 x i8], %"struct.std::_Rb_tree_header" }
%"class.grpc_core::WeakRefCountedPtr" = type { ptr }
%"class.grpc_core::(anonymous namespace)::XdsOverrideHostLb::SubchannelWrapper::ConnectivityStateWatcher" = type { %"class.grpc_core::SubchannelInterface::ConnectivityStateWatcherInterface", %"class.grpc_core::WeakRefCountedPtr" }
%"class.grpc_core::SubchannelInterface::ConnectivityStateWatcherInterface" = type { ptr }

; Function Attrs: mustprogress nounwind uwtable
define internal noundef ptr @_ZNK9grpc_core13RefCountedPtrINS_12_GLOBAL__N_117XdsOverrideHostLbEE3getEv(ptr noundef nonnull align 8 dereferenceable(8) %0) #5 align 2 {
  %2 = alloca ptr, align 8
  store ptr %0, ptr %2, align 8, !tbaa !398
  %3 = load ptr, ptr %2, align 8
  %4 = getelementptr inbounds nuw %"class.grpc_core::RefCountedPtr.176", ptr %3, i32 0, i32 0
  %5 = load ptr, ptr %4, align 8, !tbaa !400
  ret ptr %5
}

; Function Attrs: mustprogress nounwind uwtable
define linkonce_odr noundef ptr @_ZNK9grpc_core19LoadBalancingPolicy18interested_partiesEv(ptr noundef nonnull align 8 dereferenceable(56) %0) #5 comdat align 2 {
  %2 = alloca ptr, align 8
  store ptr %0, ptr %2, align 8, !tbaa !326
  %3 = load ptr, ptr %2, align 8
  %4 = getelementptr inbounds nuw %"class.grpc_core::LoadBalancingPolicy", ptr %3, i32 0, i32 2
  %5 = load ptr, ptr %4, align 8, !tbaa !537
  ret ptr %5
}

; Function Attrs: mustprogress nounwind uwtable
define internal noundef ptr @_ZNK9grpc_core12_GLOBAL__N_117XdsOverrideHostLb17SubchannelWrapper6policyEv(ptr noundef nonnull align 8 dereferenceable(96) %0) #5 align 2 {
  %2 = alloca ptr, align 8
  store ptr %0, ptr %2, align 8, !tbaa !549
  %3 = load ptr, ptr %2, align 8
  %4 = getelementptr inbounds nuw %"class.grpc_core::(anonymous namespace)::XdsOverrideHostLb::SubchannelWrapper", ptr %3, i32 0, i32 1
  %5 = call noundef ptr @_ZNK9grpc_core13RefCountedPtrINS_12_GLOBAL__N_117XdsOverrideHostLbEE3getEv(ptr noundef nonnull align 8 dereferenceable(8) %4)
  ret ptr %5
}

; Function Attrs: mustprogress nounwind uwtable
define internal noundef ptr @_ZNK9grpc_core17WeakRefCountedPtrINS_12_GLOBAL__N_117XdsOverrideHostLb17SubchannelWrapperEEptEv(ptr noundef nonnull align 8 dereferenceable(8) %0) #5 align 2 {
  %2 = alloca ptr, align 8
  store ptr %0, ptr %2, align 8, !tbaa !1167
  %3 = load ptr, ptr %2, align 8
  %4 = getelementptr inbounds nuw %"class.grpc_core::WeakRefCountedPtr", ptr %3, i32 0, i32 0
  %5 = load ptr, ptr %4, align 8, !tbaa !1169
  ret ptr %5
}

; Function Attrs: mustprogress nounwind uwtable
define internal noundef ptr @_ZN9grpc_core12_GLOBAL__N_117XdsOverrideHostLb17SubchannelWrapper24ConnectivityStateWatcher18interested_partiesEv(ptr noundef nonnull align 8 dereferenceable(16) %0) unnamed_addr #5 align 2 {
  %2 = alloca ptr, align 8
  store ptr %0, ptr %2, align 8, !tbaa !1181
  %3 = load ptr, ptr %2, align 8
  %4 = getelementptr inbounds nuw %"class.grpc_core::(anonymous namespace)::XdsOverrideHostLb::SubchannelWrapper::ConnectivityStateWatcher", ptr %3, i32 0, i32 1
  %5 = call noundef ptr @_ZNK9grpc_core17WeakRefCountedPtrINS_12_GLOBAL__N_117XdsOverrideHostLb17SubchannelWrapperEEptEv(ptr noundef nonnull align 8 dereferenceable(8) %4)
  %6 = call noundef ptr @_ZNK9grpc_core12_GLOBAL__N_117XdsOverrideHostLb17SubchannelWrapper6policyEv(ptr noundef nonnull align 8 dereferenceable(96) %5)
  %7 = call noundef ptr @_ZNK9grpc_core19LoadBalancingPolicy18interested_partiesEv(ptr noundef nonnull align 8 dereferenceable(56) %6)
  ret ptr %7
}