; Function Attrs: mustprogress nofree norecurse nosync nounwind willreturn memory(read, inaccessiblemem: none) uwtable
define internal noundef ptr @_ZN9grpc_core12_GLOBAL__N_117XdsOverrideHostLb17SubchannelWrapper24ConnectivityStateWatcher18interested_partiesEv(ptr noundef nonnull readonly align 8 captures(none) dereferenceable(16) %0) unnamed_addr #34 align 2 {
  %2 = getelementptr inbounds nuw i8, ptr %0, i64 8
  %.val1 = load ptr, ptr %2, align 8, !tbaa !450
  %3 = getelementptr i8, ptr %.val1, i64 24
  %.val = load ptr, ptr %3, align 8, !tbaa !170
  %4 = getelementptr inbounds nuw i8, ptr %.val, i64 32
  %5 = load ptr, ptr %4, align 8, !tbaa !244
  ret ptr %5
}